ARM GAS  C:\Users\Gabriel\AppData\Local\Temp\ccqiapua.s 			page 1


   1              		.syntax unified
   2              		.cpu cortex-m3
   3              		.fpu softvfp
   4              		.eabi_attribute 20, 1
   5              		.eabi_attribute 21, 1
   6              		.eabi_attribute 23, 3
   7              		.eabi_attribute 24, 1
   8              		.eabi_attribute 25, 1
   9              		.eabi_attribute 26, 1
  10              		.eabi_attribute 30, 1
  11              		.eabi_attribute 34, 1
  12              		.eabi_attribute 18, 4
  13              		.thumb
  14              		.syntax unified
  15              		.file	"main.c"
  16              		.text
  17              	.Ltext0:
  18              		.cfi_sections	.debug_frame
  19              		.section	.text.InterrumpISR,"ax",%progbits
  20              		.align	2
  21              		.global	InterrumpISR
  22              		.thumb
  23              		.thumb_func
  24              		.type	InterrumpISR, %function
  25              	InterrumpISR:
  26              	.LFB69:
  27              		.file 1 "main.c"
   1:main.c        **** //Incluir librerias
   2:main.c        **** #include "project.h"
   3:main.c        **** #include "LiquidCrystal_I2C.h"
   4:main.c        **** #include "stdio.h"
   5:main.c        **** #include <stdbool.h>
   6:main.c        **** 
   7:main.c        **** //Declarar variables
   8:main.c        **** volatile char dato; //Dato ingresado por coneccion bluetooth UART
   9:main.c        **** 
  10:main.c        **** // Variables para detectar flancos
  11:main.c        **** volatile bool adelantePresionado = false;
  12:main.c        **** volatile bool atrasPresionado = false;
  13:main.c        **** volatile bool derechaPresionado = false;
  14:main.c        **** volatile bool izquierdaPresionado = false;
  15:main.c        **** 
  16:main.c        **** //Funcion derecha
  17:main.c        **** void TurnRight() {
  18:main.c        ****     clear();
  19:main.c        ****     LCD_print("DERECHA");
  20:main.c        ****     setCursor(0, 1);
  21:main.c        ****     LCD_print("GRUPO 3 - 2023");
  22:main.c        ****     setCursor(0, 2);
  23:main.c        ****     M1_1_Write(0);
  24:main.c        ****     M1_2_Write(1);
  25:main.c        ****     PWM_Motores_WriteCompare1(200);
  26:main.c        ****     M2_1_Write(0);
  27:main.c        ****     M2_2_Write(1);
  28:main.c        ****     PWM_Motores_WriteCompare2(100);
  29:main.c        **** }
  30:main.c        **** 
ARM GAS  C:\Users\Gabriel\AppData\Local\Temp\ccqiapua.s 			page 2


  31:main.c        **** //Funcion izquierda
  32:main.c        **** void TurnLeft() {
  33:main.c        ****     clear();
  34:main.c        ****     LCD_print("IZQUIERDA");
  35:main.c        ****     setCursor(0, 1);
  36:main.c        ****     LCD_print("GRUPO 3 - 2023");
  37:main.c        ****     setCursor(0, 2);
  38:main.c        ****     M1_1_Write(1);
  39:main.c        ****     M1_2_Write(0);
  40:main.c        ****     PWM_Motores_WriteCompare1(105);
  41:main.c        ****     M2_1_Write(1);
  42:main.c        ****     M2_2_Write(0);
  43:main.c        ****     PWM_Motores_WriteCompare2(255);
  44:main.c        **** }
  45:main.c        **** 
  46:main.c        **** //Funcion adelante
  47:main.c        **** void Forward() {
  48:main.c        ****     clear();
  49:main.c        ****     LCD_print("ADELANTE");
  50:main.c        ****     setCursor(0, 1);
  51:main.c        ****     LCD_print("GRUPO 3 - 2023");
  52:main.c        ****     setCursor(0, 2);
  53:main.c        ****     M1_1_Write(1);
  54:main.c        ****     M1_2_Write(0);
  55:main.c        ****     PWM_Motores_WriteCompare1(255);
  56:main.c        ****     M2_1_Write(1);
  57:main.c        ****     M2_2_Write(0);
  58:main.c        ****     PWM_Motores_WriteCompare2(255);
  59:main.c        **** }
  60:main.c        **** 
  61:main.c        **** //Funcion atras
  62:main.c        **** void Back() {
  63:main.c        ****     clear();
  64:main.c        ****     LCD_print("ATRAS");
  65:main.c        ****     setCursor(0, 1);
  66:main.c        ****     LCD_print("GRUPO 3 - 2023");
  67:main.c        ****     setCursor(0, 2);
  68:main.c        ****     M1_1_Write(0);
  69:main.c        ****     M1_2_Write(1);
  70:main.c        ****     PWM_Motores_WriteCompare1(105);
  71:main.c        ****     M2_1_Write(0);
  72:main.c        ****     M2_2_Write(1);
  73:main.c        ****     PWM_Motores_WriteCompare2(105);
  74:main.c        **** }
  75:main.c        **** 
  76:main.c        **** //Funcion Detener
  77:main.c        **** void Detener() {
  78:main.c        ****     clear();
  79:main.c        ****     LCD_print("DIGITALES II");
  80:main.c        ****     setCursor(0, 1);
  81:main.c        ****     LCD_print("GRUPO 3 - 2023");
  82:main.c        ****     setCursor(0, 2);
  83:main.c        ****     M1_1_Write(0);
  84:main.c        ****     M1_2_Write(0);
  85:main.c        ****     PWM_Motores_WriteCompare1(0);
  86:main.c        ****     M2_1_Write(0);
  87:main.c        ****     M2_2_Write(0);
ARM GAS  C:\Users\Gabriel\AppData\Local\Temp\ccqiapua.s 			page 3


  88:main.c        ****     PWM_Motores_WriteCompare2(0);
  89:main.c        **** }
  90:main.c        **** 
  91:main.c        **** CY_ISR(InterrumpISR) {
  28              		.loc 1 91 0
  29              		.cfi_startproc
  30              		@ args = 0, pretend = 0, frame = 0
  31              		@ frame_needed = 0, uses_anonymous_args = 0
  32 0000 08B5     		push	{r3, lr}
  33              		.cfi_def_cfa_offset 8
  34              		.cfi_offset 3, -8
  35              		.cfi_offset 14, -4
  92:main.c        ****     dato = UART_GetChar(); // Recibe el dato del bluetooth
  36              		.loc 1 92 0
  37 0002 FFF7FEFF 		bl	UART_GetChar
  38              	.LVL0:
  39 0006 0D4B     		ldr	r3, .L9
  40 0008 1870     		strb	r0, [r3]
  93:main.c        ****     //Switchea el dato segun el siguiente criterio
  94:main.c        ****     switch (dato) {
  41              		.loc 1 94 0
  42 000a 1B78     		ldrb	r3, [r3]	@ zero_extendqisi2
  43 000c 303B     		subs	r3, r3, #48
  44 000e 032B     		cmp	r3, #3
  45 0010 12D8     		bhi	.L1
  46 0012 DFE803F0 		tbb	[pc, r3]
  47              	.L4:
  48 0016 02       		.byte	(.L3-.L4)/2
  49 0017 06       		.byte	(.L5-.L4)/2
  50 0018 0A       		.byte	(.L6-.L4)/2
  51 0019 0E       		.byte	(.L7-.L4)/2
  52              		.p2align 1
  53              	.L3:
  95:main.c        ****         case '0': //Adelante
  96:main.c        ****             adelantePresionado = true;
  54              		.loc 1 96 0
  55 001a 0122     		movs	r2, #1
  56 001c 084B     		ldr	r3, .L9+4
  57 001e 1A70     		strb	r2, [r3]
  97:main.c        ****             break;
  58              		.loc 1 97 0
  59 0020 08BD     		pop	{r3, pc}
  60              	.L5:
  98:main.c        ****         case '1': //Atras
  99:main.c        ****             atrasPresionado = true;
  61              		.loc 1 99 0
  62 0022 0122     		movs	r2, #1
  63 0024 064B     		ldr	r3, .L9+4
  64 0026 5A70     		strb	r2, [r3, #1]
 100:main.c        ****             break;
  65              		.loc 1 100 0
  66 0028 08BD     		pop	{r3, pc}
  67              	.L6:
 101:main.c        ****         case '2': //Giro a la derecha
 102:main.c        ****             derechaPresionado = true;
  68              		.loc 1 102 0
  69 002a 0122     		movs	r2, #1
ARM GAS  C:\Users\Gabriel\AppData\Local\Temp\ccqiapua.s 			page 4


  70 002c 044B     		ldr	r3, .L9+4
  71 002e 9A70     		strb	r2, [r3, #2]
 103:main.c        ****             break;
  72              		.loc 1 103 0
  73 0030 08BD     		pop	{r3, pc}
  74              	.L7:
 104:main.c        ****         case '3': //Giro a la Izquierda
 105:main.c        ****             izquierdaPresionado = true;
  75              		.loc 1 105 0
  76 0032 0122     		movs	r2, #1
  77 0034 024B     		ldr	r3, .L9+4
  78 0036 DA70     		strb	r2, [r3, #3]
  79              	.L1:
  80 0038 08BD     		pop	{r3, pc}
  81              	.L10:
  82 003a 00BF     		.align	2
  83              	.L9:
  84 003c 00000000 		.word	dato
  85 0040 00000000 		.word	.LANCHOR0
  86              		.cfi_endproc
  87              	.LFE69:
  88              		.size	InterrumpISR, .-InterrumpISR
  89              		.section	.text.TurnRight,"ax",%progbits
  90              		.align	2
  91              		.global	TurnRight
  92              		.thumb
  93              		.thumb_func
  94              		.type	TurnRight, %function
  95              	TurnRight:
  96              	.LFB64:
  17:main.c        ****     clear();
  97              		.loc 1 17 0
  98              		.cfi_startproc
  99              		@ args = 0, pretend = 0, frame = 0
 100              		@ frame_needed = 0, uses_anonymous_args = 0
 101 0000 08B5     		push	{r3, lr}
 102              		.cfi_def_cfa_offset 8
 103              		.cfi_offset 3, -8
 104              		.cfi_offset 14, -4
  18:main.c        ****     LCD_print("DERECHA");
 105              		.loc 1 18 0
 106 0002 FFF7FEFF 		bl	clear
 107              	.LVL1:
  19:main.c        ****     setCursor(0, 1);
 108              		.loc 1 19 0
 109 0006 1048     		ldr	r0, .L13
 110 0008 FFF7FEFF 		bl	LCD_print
 111              	.LVL2:
  20:main.c        ****     LCD_print("GRUPO 3 - 2023");
 112              		.loc 1 20 0
 113 000c 0121     		movs	r1, #1
 114 000e 0020     		movs	r0, #0
 115 0010 FFF7FEFF 		bl	setCursor
 116              	.LVL3:
  21:main.c        ****     setCursor(0, 2);
 117              		.loc 1 21 0
 118 0014 0D48     		ldr	r0, .L13+4
ARM GAS  C:\Users\Gabriel\AppData\Local\Temp\ccqiapua.s 			page 5


 119 0016 FFF7FEFF 		bl	LCD_print
 120              	.LVL4:
  22:main.c        ****     M1_1_Write(0);
 121              		.loc 1 22 0
 122 001a 0221     		movs	r1, #2
 123 001c 0020     		movs	r0, #0
 124 001e FFF7FEFF 		bl	setCursor
 125              	.LVL5:
  23:main.c        ****     M1_2_Write(1);
 126              		.loc 1 23 0
 127 0022 0020     		movs	r0, #0
 128 0024 FFF7FEFF 		bl	M1_1_Write
 129              	.LVL6:
  24:main.c        ****     PWM_Motores_WriteCompare1(200);
 130              		.loc 1 24 0
 131 0028 0120     		movs	r0, #1
 132 002a FFF7FEFF 		bl	M1_2_Write
 133              	.LVL7:
  25:main.c        ****     M2_1_Write(0);
 134              		.loc 1 25 0
 135 002e C820     		movs	r0, #200
 136 0030 FFF7FEFF 		bl	PWM_Motores_WriteCompare1
 137              	.LVL8:
  26:main.c        ****     M2_2_Write(1);
 138              		.loc 1 26 0
 139 0034 0020     		movs	r0, #0
 140 0036 FFF7FEFF 		bl	M2_1_Write
 141              	.LVL9:
  27:main.c        ****     PWM_Motores_WriteCompare2(100);
 142              		.loc 1 27 0
 143 003a 0120     		movs	r0, #1
 144 003c FFF7FEFF 		bl	M2_2_Write
 145              	.LVL10:
  28:main.c        **** }
 146              		.loc 1 28 0
 147 0040 6420     		movs	r0, #100
 148 0042 FFF7FEFF 		bl	PWM_Motores_WriteCompare2
 149              	.LVL11:
 150 0046 08BD     		pop	{r3, pc}
 151              	.L14:
 152              		.align	2
 153              	.L13:
 154 0048 00000000 		.word	.LC0
 155 004c 08000000 		.word	.LC1
 156              		.cfi_endproc
 157              	.LFE64:
 158              		.size	TurnRight, .-TurnRight
 159              		.section	.text.TurnLeft,"ax",%progbits
 160              		.align	2
 161              		.global	TurnLeft
 162              		.thumb
 163              		.thumb_func
 164              		.type	TurnLeft, %function
 165              	TurnLeft:
 166              	.LFB65:
  32:main.c        ****     clear();
 167              		.loc 1 32 0
ARM GAS  C:\Users\Gabriel\AppData\Local\Temp\ccqiapua.s 			page 6


 168              		.cfi_startproc
 169              		@ args = 0, pretend = 0, frame = 0
 170              		@ frame_needed = 0, uses_anonymous_args = 0
 171 0000 08B5     		push	{r3, lr}
 172              		.cfi_def_cfa_offset 8
 173              		.cfi_offset 3, -8
 174              		.cfi_offset 14, -4
  33:main.c        ****     LCD_print("IZQUIERDA");
 175              		.loc 1 33 0
 176 0002 FFF7FEFF 		bl	clear
 177              	.LVL12:
  34:main.c        ****     setCursor(0, 1);
 178              		.loc 1 34 0
 179 0006 1048     		ldr	r0, .L17
 180 0008 FFF7FEFF 		bl	LCD_print
 181              	.LVL13:
  35:main.c        ****     LCD_print("GRUPO 3 - 2023");
 182              		.loc 1 35 0
 183 000c 0121     		movs	r1, #1
 184 000e 0020     		movs	r0, #0
 185 0010 FFF7FEFF 		bl	setCursor
 186              	.LVL14:
  36:main.c        ****     setCursor(0, 2);
 187              		.loc 1 36 0
 188 0014 0D48     		ldr	r0, .L17+4
 189 0016 FFF7FEFF 		bl	LCD_print
 190              	.LVL15:
  37:main.c        ****     M1_1_Write(1);
 191              		.loc 1 37 0
 192 001a 0221     		movs	r1, #2
 193 001c 0020     		movs	r0, #0
 194 001e FFF7FEFF 		bl	setCursor
 195              	.LVL16:
  38:main.c        ****     M1_2_Write(0);
 196              		.loc 1 38 0
 197 0022 0120     		movs	r0, #1
 198 0024 FFF7FEFF 		bl	M1_1_Write
 199              	.LVL17:
  39:main.c        ****     PWM_Motores_WriteCompare1(105);
 200              		.loc 1 39 0
 201 0028 0020     		movs	r0, #0
 202 002a FFF7FEFF 		bl	M1_2_Write
 203              	.LVL18:
  40:main.c        ****     M2_1_Write(1);
 204              		.loc 1 40 0
 205 002e 6920     		movs	r0, #105
 206 0030 FFF7FEFF 		bl	PWM_Motores_WriteCompare1
 207              	.LVL19:
  41:main.c        ****     M2_2_Write(0);
 208              		.loc 1 41 0
 209 0034 0120     		movs	r0, #1
 210 0036 FFF7FEFF 		bl	M2_1_Write
 211              	.LVL20:
  42:main.c        ****     PWM_Motores_WriteCompare2(255);
 212              		.loc 1 42 0
 213 003a 0020     		movs	r0, #0
 214 003c FFF7FEFF 		bl	M2_2_Write
ARM GAS  C:\Users\Gabriel\AppData\Local\Temp\ccqiapua.s 			page 7


 215              	.LVL21:
  43:main.c        **** }
 216              		.loc 1 43 0
 217 0040 FF20     		movs	r0, #255
 218 0042 FFF7FEFF 		bl	PWM_Motores_WriteCompare2
 219              	.LVL22:
 220 0046 08BD     		pop	{r3, pc}
 221              	.L18:
 222              		.align	2
 223              	.L17:
 224 0048 18000000 		.word	.LC2
 225 004c 08000000 		.word	.LC1
 226              		.cfi_endproc
 227              	.LFE65:
 228              		.size	TurnLeft, .-TurnLeft
 229              		.section	.text.Forward,"ax",%progbits
 230              		.align	2
 231              		.global	Forward
 232              		.thumb
 233              		.thumb_func
 234              		.type	Forward, %function
 235              	Forward:
 236              	.LFB66:
  47:main.c        ****     clear();
 237              		.loc 1 47 0
 238              		.cfi_startproc
 239              		@ args = 0, pretend = 0, frame = 0
 240              		@ frame_needed = 0, uses_anonymous_args = 0
 241 0000 08B5     		push	{r3, lr}
 242              		.cfi_def_cfa_offset 8
 243              		.cfi_offset 3, -8
 244              		.cfi_offset 14, -4
  48:main.c        ****     LCD_print("ADELANTE");
 245              		.loc 1 48 0
 246 0002 FFF7FEFF 		bl	clear
 247              	.LVL23:
  49:main.c        ****     setCursor(0, 1);
 248              		.loc 1 49 0
 249 0006 1048     		ldr	r0, .L21
 250 0008 FFF7FEFF 		bl	LCD_print
 251              	.LVL24:
  50:main.c        ****     LCD_print("GRUPO 3 - 2023");
 252              		.loc 1 50 0
 253 000c 0121     		movs	r1, #1
 254 000e 0020     		movs	r0, #0
 255 0010 FFF7FEFF 		bl	setCursor
 256              	.LVL25:
  51:main.c        ****     setCursor(0, 2);
 257              		.loc 1 51 0
 258 0014 0D48     		ldr	r0, .L21+4
 259 0016 FFF7FEFF 		bl	LCD_print
 260              	.LVL26:
  52:main.c        ****     M1_1_Write(1);
 261              		.loc 1 52 0
 262 001a 0221     		movs	r1, #2
 263 001c 0020     		movs	r0, #0
 264 001e FFF7FEFF 		bl	setCursor
ARM GAS  C:\Users\Gabriel\AppData\Local\Temp\ccqiapua.s 			page 8


 265              	.LVL27:
  53:main.c        ****     M1_2_Write(0);
 266              		.loc 1 53 0
 267 0022 0120     		movs	r0, #1
 268 0024 FFF7FEFF 		bl	M1_1_Write
 269              	.LVL28:
  54:main.c        ****     PWM_Motores_WriteCompare1(255);
 270              		.loc 1 54 0
 271 0028 0020     		movs	r0, #0
 272 002a FFF7FEFF 		bl	M1_2_Write
 273              	.LVL29:
  55:main.c        ****     M2_1_Write(1);
 274              		.loc 1 55 0
 275 002e FF20     		movs	r0, #255
 276 0030 FFF7FEFF 		bl	PWM_Motores_WriteCompare1
 277              	.LVL30:
  56:main.c        ****     M2_2_Write(0);
 278              		.loc 1 56 0
 279 0034 0120     		movs	r0, #1
 280 0036 FFF7FEFF 		bl	M2_1_Write
 281              	.LVL31:
  57:main.c        ****     PWM_Motores_WriteCompare2(255);
 282              		.loc 1 57 0
 283 003a 0020     		movs	r0, #0
 284 003c FFF7FEFF 		bl	M2_2_Write
 285              	.LVL32:
  58:main.c        **** }
 286              		.loc 1 58 0
 287 0040 FF20     		movs	r0, #255
 288 0042 FFF7FEFF 		bl	PWM_Motores_WriteCompare2
 289              	.LVL33:
 290 0046 08BD     		pop	{r3, pc}
 291              	.L22:
 292              		.align	2
 293              	.L21:
 294 0048 24000000 		.word	.LC3
 295 004c 08000000 		.word	.LC1
 296              		.cfi_endproc
 297              	.LFE66:
 298              		.size	Forward, .-Forward
 299              		.section	.text.Back,"ax",%progbits
 300              		.align	2
 301              		.global	Back
 302              		.thumb
 303              		.thumb_func
 304              		.type	Back, %function
 305              	Back:
 306              	.LFB67:
  62:main.c        ****     clear();
 307              		.loc 1 62 0
 308              		.cfi_startproc
 309              		@ args = 0, pretend = 0, frame = 0
 310              		@ frame_needed = 0, uses_anonymous_args = 0
 311 0000 08B5     		push	{r3, lr}
 312              		.cfi_def_cfa_offset 8
 313              		.cfi_offset 3, -8
 314              		.cfi_offset 14, -4
ARM GAS  C:\Users\Gabriel\AppData\Local\Temp\ccqiapua.s 			page 9


  63:main.c        ****     LCD_print("ATRAS");
 315              		.loc 1 63 0
 316 0002 FFF7FEFF 		bl	clear
 317              	.LVL34:
  64:main.c        ****     setCursor(0, 1);
 318              		.loc 1 64 0
 319 0006 1048     		ldr	r0, .L25
 320 0008 FFF7FEFF 		bl	LCD_print
 321              	.LVL35:
  65:main.c        ****     LCD_print("GRUPO 3 - 2023");
 322              		.loc 1 65 0
 323 000c 0121     		movs	r1, #1
 324 000e 0020     		movs	r0, #0
 325 0010 FFF7FEFF 		bl	setCursor
 326              	.LVL36:
  66:main.c        ****     setCursor(0, 2);
 327              		.loc 1 66 0
 328 0014 0D48     		ldr	r0, .L25+4
 329 0016 FFF7FEFF 		bl	LCD_print
 330              	.LVL37:
  67:main.c        ****     M1_1_Write(0);
 331              		.loc 1 67 0
 332 001a 0221     		movs	r1, #2
 333 001c 0020     		movs	r0, #0
 334 001e FFF7FEFF 		bl	setCursor
 335              	.LVL38:
  68:main.c        ****     M1_2_Write(1);
 336              		.loc 1 68 0
 337 0022 0020     		movs	r0, #0
 338 0024 FFF7FEFF 		bl	M1_1_Write
 339              	.LVL39:
  69:main.c        ****     PWM_Motores_WriteCompare1(105);
 340              		.loc 1 69 0
 341 0028 0120     		movs	r0, #1
 342 002a FFF7FEFF 		bl	M1_2_Write
 343              	.LVL40:
  70:main.c        ****     M2_1_Write(0);
 344              		.loc 1 70 0
 345 002e 6920     		movs	r0, #105
 346 0030 FFF7FEFF 		bl	PWM_Motores_WriteCompare1
 347              	.LVL41:
  71:main.c        ****     M2_2_Write(1);
 348              		.loc 1 71 0
 349 0034 0020     		movs	r0, #0
 350 0036 FFF7FEFF 		bl	M2_1_Write
 351              	.LVL42:
  72:main.c        ****     PWM_Motores_WriteCompare2(105);
 352              		.loc 1 72 0
 353 003a 0120     		movs	r0, #1
 354 003c FFF7FEFF 		bl	M2_2_Write
 355              	.LVL43:
  73:main.c        **** }
 356              		.loc 1 73 0
 357 0040 6920     		movs	r0, #105
 358 0042 FFF7FEFF 		bl	PWM_Motores_WriteCompare2
 359              	.LVL44:
 360 0046 08BD     		pop	{r3, pc}
ARM GAS  C:\Users\Gabriel\AppData\Local\Temp\ccqiapua.s 			page 10


 361              	.L26:
 362              		.align	2
 363              	.L25:
 364 0048 30000000 		.word	.LC4
 365 004c 08000000 		.word	.LC1
 366              		.cfi_endproc
 367              	.LFE67:
 368              		.size	Back, .-Back
 369              		.section	.text.Detener,"ax",%progbits
 370              		.align	2
 371              		.global	Detener
 372              		.thumb
 373              		.thumb_func
 374              		.type	Detener, %function
 375              	Detener:
 376              	.LFB68:
  77:main.c        ****     clear();
 377              		.loc 1 77 0
 378              		.cfi_startproc
 379              		@ args = 0, pretend = 0, frame = 0
 380              		@ frame_needed = 0, uses_anonymous_args = 0
 381 0000 08B5     		push	{r3, lr}
 382              		.cfi_def_cfa_offset 8
 383              		.cfi_offset 3, -8
 384              		.cfi_offset 14, -4
  78:main.c        ****     LCD_print("DIGITALES II");
 385              		.loc 1 78 0
 386 0002 FFF7FEFF 		bl	clear
 387              	.LVL45:
  79:main.c        ****     setCursor(0, 1);
 388              		.loc 1 79 0
 389 0006 1048     		ldr	r0, .L29
 390 0008 FFF7FEFF 		bl	LCD_print
 391              	.LVL46:
  80:main.c        ****     LCD_print("GRUPO 3 - 2023");
 392              		.loc 1 80 0
 393 000c 0121     		movs	r1, #1
 394 000e 0020     		movs	r0, #0
 395 0010 FFF7FEFF 		bl	setCursor
 396              	.LVL47:
  81:main.c        ****     setCursor(0, 2);
 397              		.loc 1 81 0
 398 0014 0D48     		ldr	r0, .L29+4
 399 0016 FFF7FEFF 		bl	LCD_print
 400              	.LVL48:
  82:main.c        ****     M1_1_Write(0);
 401              		.loc 1 82 0
 402 001a 0221     		movs	r1, #2
 403 001c 0020     		movs	r0, #0
 404 001e FFF7FEFF 		bl	setCursor
 405              	.LVL49:
  83:main.c        ****     M1_2_Write(0);
 406              		.loc 1 83 0
 407 0022 0020     		movs	r0, #0
 408 0024 FFF7FEFF 		bl	M1_1_Write
 409              	.LVL50:
  84:main.c        ****     PWM_Motores_WriteCompare1(0);
ARM GAS  C:\Users\Gabriel\AppData\Local\Temp\ccqiapua.s 			page 11


 410              		.loc 1 84 0
 411 0028 0020     		movs	r0, #0
 412 002a FFF7FEFF 		bl	M1_2_Write
 413              	.LVL51:
  85:main.c        ****     M2_1_Write(0);
 414              		.loc 1 85 0
 415 002e 0020     		movs	r0, #0
 416 0030 FFF7FEFF 		bl	PWM_Motores_WriteCompare1
 417              	.LVL52:
  86:main.c        ****     M2_2_Write(0);
 418              		.loc 1 86 0
 419 0034 0020     		movs	r0, #0
 420 0036 FFF7FEFF 		bl	M2_1_Write
 421              	.LVL53:
  87:main.c        ****     PWM_Motores_WriteCompare2(0);
 422              		.loc 1 87 0
 423 003a 0020     		movs	r0, #0
 424 003c FFF7FEFF 		bl	M2_2_Write
 425              	.LVL54:
  88:main.c        **** }
 426              		.loc 1 88 0
 427 0040 0020     		movs	r0, #0
 428 0042 FFF7FEFF 		bl	PWM_Motores_WriteCompare2
 429              	.LVL55:
 430 0046 08BD     		pop	{r3, pc}
 431              	.L30:
 432              		.align	2
 433              	.L29:
 434 0048 38000000 		.word	.LC5
 435 004c 08000000 		.word	.LC1
 436              		.cfi_endproc
 437              	.LFE68:
 438              		.size	Detener, .-Detener
 439              		.section	.text.main,"ax",%progbits
 440              		.align	2
 441              		.global	main
 442              		.thumb
 443              		.thumb_func
 444              		.type	main, %function
 445              	main:
 446              	.LFB70:
 106:main.c        ****             break;
 107:main.c        ****         default:
 108:main.c        ****             break;
 109:main.c        ****     }
 110:main.c        **** }
 111:main.c        **** 
 112:main.c        **** int main(void) {
 447              		.loc 1 112 0
 448              		.cfi_startproc
 449              		@ Volatile: function does not return.
 450              		@ args = 0, pretend = 0, frame = 0
 451              		@ frame_needed = 0, uses_anonymous_args = 0
 452 0000 08B5     		push	{r3, lr}
 453              		.cfi_def_cfa_offset 8
 454              		.cfi_offset 3, -8
 455              		.cfi_offset 14, -4
ARM GAS  C:\Users\Gabriel\AppData\Local\Temp\ccqiapua.s 			page 12


 113:main.c        ****     CyGlobalIntEnable;
 456              		.loc 1 113 0
 457              		.syntax unified
 458              	@ 113 "main.c" 1
 459 0002 62B6     		CPSIE   i
 460              	@ 0 "" 2
 114:main.c        ****     
 115:main.c        ****     PWM_Motores_Start(); //Incializar PWM
 461              		.loc 1 115 0
 462              		.thumb
 463              		.syntax unified
 464 0004 FFF7FEFF 		bl	PWM_Motores_Start
 465              	.LVL56:
 116:main.c        ****     PWM_Motores_WriteCompare1(0);
 466              		.loc 1 116 0
 467 0008 0020     		movs	r0, #0
 468 000a FFF7FEFF 		bl	PWM_Motores_WriteCompare1
 469              	.LVL57:
 117:main.c        ****     PWM_Motores_WriteCompare2(0);
 470              		.loc 1 117 0
 471 000e 0020     		movs	r0, #0
 472 0010 FFF7FEFF 		bl	PWM_Motores_WriteCompare2
 473              	.LVL58:
 118:main.c        ****     M1_1_Write(0); //Motor 1 estado inicial: apagado
 474              		.loc 1 118 0
 475 0014 0020     		movs	r0, #0
 476 0016 FFF7FEFF 		bl	M1_1_Write
 477              	.LVL59:
 119:main.c        ****     M1_2_Write(0);
 478              		.loc 1 119 0
 479 001a 0020     		movs	r0, #0
 480 001c FFF7FEFF 		bl	M1_2_Write
 481              	.LVL60:
 120:main.c        ****     M2_1_Write(0); //Motor 2 estado inicial: apagado
 482              		.loc 1 120 0
 483 0020 0020     		movs	r0, #0
 484 0022 FFF7FEFF 		bl	M2_1_Write
 485              	.LVL61:
 121:main.c        ****     M2_2_Write(0);
 486              		.loc 1 121 0
 487 0026 0020     		movs	r0, #0
 488 0028 FFF7FEFF 		bl	M2_2_Write
 489              	.LVL62:
 122:main.c        ****     
 123:main.c        ****     UART_Start(); //Inicializar UART
 490              		.loc 1 123 0
 491 002c FFF7FEFF 		bl	UART_Start
 492              	.LVL63:
 124:main.c        ****     I2C_Start(); //Inicializar I2C
 493              		.loc 1 124 0
 494 0030 FFF7FEFF 		bl	I2C_Start
 495              	.LVL64:
 125:main.c        ****     LiquidCrystal_I2C_init(0x27,16,2,0); //Inicializar LCD
 496              		.loc 1 125 0
 497 0034 0023     		movs	r3, #0
 498 0036 0222     		movs	r2, #2
 499 0038 1021     		movs	r1, #16
ARM GAS  C:\Users\Gabriel\AppData\Local\Temp\ccqiapua.s 			page 13


 500 003a 2720     		movs	r0, #39
 501 003c FFF7FEFF 		bl	LiquidCrystal_I2C_init
 502              	.LVL65:
 126:main.c        ****     begin();
 503              		.loc 1 126 0
 504 0040 FFF7FEFF 		bl	begin
 505              	.LVL66:
 127:main.c        **** 
 128:main.c        ****     RXisr_StartEx(InterrumpISR);
 506              		.loc 1 128 0
 507 0044 2248     		ldr	r0, .L42
 508 0046 FFF7FEFF 		bl	RXisr_StartEx
 509              	.LVL67:
 129:main.c        ****     
 130:main.c        ****     //Mostrar mensaje por LCD
 131:main.c        ****     LCD_print("DIGITALES II");
 510              		.loc 1 131 0
 511 004a 2248     		ldr	r0, .L42+4
 512 004c FFF7FEFF 		bl	LCD_print
 513              	.LVL68:
 132:main.c        ****     setCursor(0, 1);
 514              		.loc 1 132 0
 515 0050 0121     		movs	r1, #1
 516 0052 0020     		movs	r0, #0
 517 0054 FFF7FEFF 		bl	setCursor
 518              	.LVL69:
 133:main.c        ****     LCD_print("GRUPO 3 - 2023");
 519              		.loc 1 133 0
 520 0058 1F48     		ldr	r0, .L42+8
 521 005a FFF7FEFF 		bl	LCD_print
 522              	.LVL70:
 134:main.c        ****     setCursor(0, 2);
 523              		.loc 1 134 0
 524 005e 0221     		movs	r1, #2
 525 0060 0020     		movs	r0, #0
 526 0062 FFF7FEFF 		bl	setCursor
 527              	.LVL71:
 528              	.L32:
 135:main.c        **** 
 136:main.c        ****     for (;;) {
 137:main.c        ****     // Verificar si se ha presionado adelante
 138:main.c        ****     if (adelantePresionado) {
 529              		.loc 1 138 0
 530 0066 1D4B     		ldr	r3, .L42+12
 531 0068 1B78     		ldrb	r3, [r3]	@ zero_extendqisi2
 532 006a 13F0FF0F 		tst	r3, #255
 533 006e 05D0     		beq	.L33
 139:main.c        ****         adelantePresionado = false; // Reiniciar la bandera
 534              		.loc 1 139 0
 535 0070 0022     		movs	r2, #0
 536 0072 1A4B     		ldr	r3, .L42+12
 537 0074 1A70     		strb	r2, [r3]
 140:main.c        **** 
 141:main.c        ****         // Comenzar a avanzar
 142:main.c        ****         Forward();
 538              		.loc 1 142 0
 539 0076 FFF7FEFF 		bl	Forward
ARM GAS  C:\Users\Gabriel\AppData\Local\Temp\ccqiapua.s 			page 14


 540              	.LVL72:
 541 007a 01E0     		b	.L34
 542              	.L33:
 143:main.c        ****     }else{
 144:main.c        ****         Detener();
 543              		.loc 1 144 0
 544 007c FFF7FEFF 		bl	Detener
 545              	.LVL73:
 546              	.L34:
 145:main.c        ****     }
 146:main.c        **** 
 147:main.c        ****     // Verificar si se ha presionado atrás
 148:main.c        ****     if (atrasPresionado) {
 547              		.loc 1 148 0
 548 0080 164B     		ldr	r3, .L42+12
 549 0082 5B78     		ldrb	r3, [r3, #1]	@ zero_extendqisi2
 550 0084 13F0FF0F 		tst	r3, #255
 551 0088 05D0     		beq	.L35
 149:main.c        ****         atrasPresionado = false; // Reiniciar la bandera
 552              		.loc 1 149 0
 553 008a 0022     		movs	r2, #0
 554 008c 134B     		ldr	r3, .L42+12
 555 008e 5A70     		strb	r2, [r3, #1]
 150:main.c        **** 
 151:main.c        ****         // Comenzar a retroceder
 152:main.c        ****         Back();
 556              		.loc 1 152 0
 557 0090 FFF7FEFF 		bl	Back
 558              	.LVL74:
 559 0094 01E0     		b	.L36
 560              	.L35:
 153:main.c        ****     }else{
 154:main.c        ****         Detener();
 561              		.loc 1 154 0
 562 0096 FFF7FEFF 		bl	Detener
 563              	.LVL75:
 564              	.L36:
 155:main.c        ****     }
 156:main.c        **** 
 157:main.c        ****     // Verificar si se ha presionado derecha
 158:main.c        ****     if (derechaPresionado) {
 565              		.loc 1 158 0
 566 009a 104B     		ldr	r3, .L42+12
 567 009c 9B78     		ldrb	r3, [r3, #2]	@ zero_extendqisi2
 568 009e 13F0FF0F 		tst	r3, #255
 569 00a2 05D0     		beq	.L37
 159:main.c        ****         derechaPresionado = false; // Reiniciar la bandera
 570              		.loc 1 159 0
 571 00a4 0022     		movs	r2, #0
 572 00a6 0D4B     		ldr	r3, .L42+12
 573 00a8 9A70     		strb	r2, [r3, #2]
 160:main.c        **** 
 161:main.c        ****         // Girar a la derecha
 162:main.c        ****         TurnRight();
 574              		.loc 1 162 0
 575 00aa FFF7FEFF 		bl	TurnRight
 576              	.LVL76:
ARM GAS  C:\Users\Gabriel\AppData\Local\Temp\ccqiapua.s 			page 15


 577 00ae 01E0     		b	.L38
 578              	.L37:
 163:main.c        ****     }else{
 164:main.c        ****         Detener();
 579              		.loc 1 164 0
 580 00b0 FFF7FEFF 		bl	Detener
 581              	.LVL77:
 582              	.L38:
 165:main.c        ****     }
 166:main.c        **** 
 167:main.c        ****     // Verificar si se ha presionado izquierda
 168:main.c        ****     if (izquierdaPresionado) {
 583              		.loc 1 168 0
 584 00b4 094B     		ldr	r3, .L42+12
 585 00b6 DB78     		ldrb	r3, [r3, #3]	@ zero_extendqisi2
 586 00b8 13F0FF0F 		tst	r3, #255
 587 00bc 05D0     		beq	.L39
 169:main.c        ****         izquierdaPresionado = false; // Reiniciar la bandera
 588              		.loc 1 169 0
 589 00be 0022     		movs	r2, #0
 590 00c0 064B     		ldr	r3, .L42+12
 591 00c2 DA70     		strb	r2, [r3, #3]
 170:main.c        **** 
 171:main.c        ****         // Girar a la izquierda
 172:main.c        ****         TurnLeft();
 592              		.loc 1 172 0
 593 00c4 FFF7FEFF 		bl	TurnLeft
 594              	.LVL78:
 595 00c8 CDE7     		b	.L32
 596              	.L39:
 173:main.c        ****     }else{
 174:main.c        ****         Detener();
 597              		.loc 1 174 0
 598 00ca FFF7FEFF 		bl	Detener
 599              	.LVL79:
 600 00ce CAE7     		b	.L32
 601              	.L43:
 602              		.align	2
 603              	.L42:
 604 00d0 00000000 		.word	InterrumpISR
 605 00d4 38000000 		.word	.LC5
 606 00d8 08000000 		.word	.LC1
 607 00dc 00000000 		.word	.LANCHOR0
 608              		.cfi_endproc
 609              	.LFE70:
 610              		.size	main, .-main
 611              		.global	izquierdaPresionado
 612              		.global	derechaPresionado
 613              		.global	atrasPresionado
 614              		.global	adelantePresionado
 615              		.comm	dato,1,1
 616              		.section	.rodata.str1.4,"aMS",%progbits,1
 617              		.align	2
 618              	.LC0:
 619 0000 44455245 		.ascii	"DERECHA\000"
 619      43484100 
 620              	.LC1:
ARM GAS  C:\Users\Gabriel\AppData\Local\Temp\ccqiapua.s 			page 16


 621 0008 47525550 		.ascii	"GRUPO 3 - 2023\000"
 621      4F203320 
 621      2D203230 
 621      323300
 622 0017 00       		.space	1
 623              	.LC2:
 624 0018 495A5155 		.ascii	"IZQUIERDA\000"
 624      49455244 
 624      4100
 625 0022 0000     		.space	2
 626              	.LC3:
 627 0024 4144454C 		.ascii	"ADELANTE\000"
 627      414E5445 
 627      00
 628 002d 000000   		.space	3
 629              	.LC4:
 630 0030 41545241 		.ascii	"ATRAS\000"
 630      5300
 631 0036 0000     		.space	2
 632              	.LC5:
 633 0038 44494749 		.ascii	"DIGITALES II\000"
 633      54414C45 
 633      53204949 
 633      00
 634              		.bss
 635              		.set	.LANCHOR0,. + 0
 636              		.type	adelantePresionado, %object
 637              		.size	adelantePresionado, 1
 638              	adelantePresionado:
 639 0000 00       		.space	1
 640              		.type	atrasPresionado, %object
 641              		.size	atrasPresionado, 1
 642              	atrasPresionado:
 643 0001 00       		.space	1
 644              		.type	derechaPresionado, %object
 645              		.size	derechaPresionado, 1
 646              	derechaPresionado:
 647 0002 00       		.space	1
 648              		.type	izquierdaPresionado, %object
 649              		.size	izquierdaPresionado, 1
 650              	izquierdaPresionado:
 651 0003 00       		.space	1
 652              		.text
 653              	.Letext0:
 654              		.file 2 "c:\\program files (x86)\\cypress\\psoc creator\\4.4\\psoc creator\\import\\gnu\\arm\\5.4.
 655              		.file 3 "c:\\program files (x86)\\cypress\\psoc creator\\4.4\\psoc creator\\import\\gnu\\arm\\5.4.
 656              		.file 4 "Generated_Source\\PSoC5/core_cm3.h"
 657              		.file 5 "Generated_Source\\PSoC5/UART.h"
 658              		.file 6 "LiquidCrystal_I2C.h"
 659              		.file 7 "Generated_Source\\PSoC5/M1_1.h"
 660              		.file 8 "Generated_Source\\PSoC5/M1_2.h"
 661              		.file 9 "Generated_Source\\PSoC5/PWM_Motores.h"
 662              		.file 10 "Generated_Source\\PSoC5/M2_1.h"
 663              		.file 11 "Generated_Source\\PSoC5/M2_2.h"
 664              		.file 12 "Generated_Source\\PSoC5/I2C.h"
 665              		.file 13 "Generated_Source\\PSoC5/RXisr.h"